target datalayout = "e-m:e-p270:32:32-p271:32:32-p272:64:64-i64:64-i128:128-f80:128-n8:16:32:64-S128"
target triple = "x86_64-pc-linux-gnu"

%"class.grpc_core::ChannelArgs" = type { %"class.grpc_core::AVL" }
%"class.grpc_core::AVL" = type { %"class.grpc_core::RefCountedPtr.97" }
%"class.grpc_core::RefCountedPtr.97" = type { ptr }
%"struct.std::_Vector_base.189" = type { %"struct.std::_Vector_base<grpc_core::EndpointAddresses, std::allocator<grpc_core::EndpointAddresses>>::_Vector_impl" }
%"struct.std::_Vector_base<grpc_core::EndpointAddresses, std::allocator<grpc_core::EndpointAddresses>>::_Vector_impl" = type { %"struct.std::_Vector_base<grpc_core::EndpointAddresses, std::allocator<grpc_core::EndpointAddresses>>::_Vector_impl_data" }
%"struct.std::_Vector_base<grpc_core::EndpointAddresses, std::allocator<grpc_core::EndpointAddresses>>::_Vector_impl_data" = type { ptr, ptr, ptr }
%"union.absl::lts_20240722::functional_internal::VoidPtr" = type { ptr }
%class.anon = type { ptr }
%"class.__gnu_cxx::__normal_iterator.202" = type { ptr }
%"class.grpc_core::EndpointAddresses" = type { %"class.std::vector.203", %"class.grpc_core::ChannelArgs" }
%"class.std::vector.203" = type { %"struct.std::_Vector_base.204" }
%"struct.std::_Vector_base.204" = type { %"struct.std::_Vector_base<grpc_resolved_address, std::allocator<grpc_resolved_address>>::_Vector_impl" }
%"struct.std::_Vector_base<grpc_resolved_address, std::allocator<grpc_resolved_address>>::_Vector_impl" = type { %"struct.std::_Vector_base<grpc_resolved_address, std::allocator<grpc_resolved_address>>::_Vector_impl_data" }
%"struct.std::_Vector_base<grpc_resolved_address, std::allocator<grpc_resolved_address>>::_Vector_impl_data" = type { ptr, ptr, ptr }

; Function Attrs: mustprogress nounwind uwtable
define linkonce_odr void @_ZN9__gnu_cxx17__normal_iteratorIPN9grpc_core17EndpointAddressesESt6vectorIS2_SaIS2_EEEC2ERKS3_(ptr noundef nonnull align 8 dereferenceable(8) %0, ptr noundef nonnull align 8 dereferenceable(8) %1) unnamed_addr #6 comdat align 2 {
  %3 = alloca ptr, align 8
  %4 = alloca ptr, align 8
  store ptr %0, ptr %3, align 8, !tbaa !495
  store ptr %1, ptr %4, align 8, !tbaa !576
  %5 = load ptr, ptr %3, align 8
  %6 = getelementptr inbounds nuw %"class.__gnu_cxx::__normal_iterator.202", ptr %5, i32 0, i32 0
  %7 = load ptr, ptr %4, align 8, !tbaa !576
  %8 = load ptr, ptr %7, align 8, !tbaa !308
  store ptr %8, ptr %6, align 8, !tbaa !497
  ret void
}

; Function Attrs: mustprogress uwtable
define linkonce_odr void @_ZNSt15__new_allocatorIN9grpc_core17EndpointAddressesEE9constructIS1_JRKS1_EEEvPT_DpOT0_(ptr noundef nonnull align 1 dereferenceable(1) %0, ptr noundef %1, ptr noundef nonnull align 8 dereferenceable(32) %2) #5 comdat align 2 {
  %4 = alloca ptr, align 8
  %5 = alloca ptr, align 8
  %6 = alloca ptr, align 8
  store ptr %0, ptr %4, align 8, !tbaa !554
  store ptr %1, ptr %5, align 8, !tbaa !308
  store ptr %2, ptr %6, align 8, !tbaa !308
  %7 = load ptr, ptr %5, align 8, !tbaa !308
  %8 = load ptr, ptr %6, align 8, !tbaa !308
  call void @_ZN9grpc_core17EndpointAddressesC1ERKS0_(ptr noundef nonnull align 8 dereferenceable(32) %7, ptr noundef nonnull align 8 dereferenceable(32) %8)
  ret void
}

; Function Attrs: mustprogress nounwind uwtable
define linkonce_odr ptr @_ZNSt6vectorIN9grpc_core17EndpointAddressesESaIS1_EE3endEv(ptr noundef nonnull align 8 dereferenceable(24) %0) #6 comdat align 2 {
  %2 = alloca %"class.__gnu_cxx::__normal_iterator.202", align 8
  %3 = alloca ptr, align 8
  store ptr %0, ptr %3, align 8, !tbaa !306
  %4 = load ptr, ptr %3, align 8
  %5 = getelementptr inbounds nuw %"struct.std::_Vector_base.189", ptr %4, i32 0, i32 0
  %6 = getelementptr inbounds nuw %"struct.std::_Vector_base<grpc_core::EndpointAddresses, std::allocator<grpc_core::EndpointAddresses>>::_Vector_impl_data", ptr %5, i32 0, i32 1
  call void @_ZN9__gnu_cxx17__normal_iteratorIPN9grpc_core17EndpointAddressesESt6vectorIS2_SaIS2_EEEC2ERKS3_(ptr noundef nonnull align 8 dereferenceable(8) %2, ptr noundef nonnull align 8 dereferenceable(8) %6) #3
  %7 = getelementptr inbounds nuw %"class.__gnu_cxx::__normal_iterator.202", ptr %2, i32 0, i32 0
  %8 = load ptr, ptr %7, align 8
  ret ptr %8
}

; Function Attrs: mustprogress uwtable
define linkonce_odr void @_ZNSt16allocator_traitsISaIN9grpc_core17EndpointAddressesEEE9constructIS1_JRKS1_EEEvRS2_PT_DpOT0_(ptr noundef nonnull align 1 dereferenceable(1) %0, ptr noundef %1, ptr noundef nonnull align 8 dereferenceable(32) %2) #5 comdat align 2 {
  %4 = alloca ptr, align 8
  %5 = alloca ptr, align 8
  %6 = alloca ptr, align 8
  store ptr %0, ptr %4, align 8, !tbaa !552
  store ptr %1, ptr %5, align 8, !tbaa !308
  store ptr %2, ptr %6, align 8, !tbaa !308
  %7 = load ptr, ptr %4, align 8, !tbaa !552
  %8 = load ptr, ptr %5, align 8, !tbaa !308
  %9 = load ptr, ptr %6, align 8, !tbaa !308
  call void @_ZNSt15__new_allocatorIN9grpc_core17EndpointAddressesEE9constructIS1_JRKS1_EEEvPT_DpOT0_(ptr noundef nonnull align 1 dereferenceable(1) %7, ptr noundef %8, ptr noundef nonnull align 8 dereferenceable(32) %9)
  ret void
}

; Function Attrs: mustprogress uwtable
define linkonce_odr void @_ZNSt6vectorIN9grpc_core17EndpointAddressesESaIS1_EE9push_backERKS1_(ptr noundef nonnull align 8 dereferenceable(24) %0, ptr noundef nonnull align 8 dereferenceable(32) %1) #5 comdat align 2 {
  %3 = alloca ptr, align 8
  %4 = alloca ptr, align 8
  %5 = alloca %"class.__gnu_cxx::__normal_iterator.202", align 8
  store ptr %0, ptr %3, align 8, !tbaa !306
  store ptr %1, ptr %4, align 8, !tbaa !308
  %6 = load ptr, ptr %3, align 8
  %7 = getelementptr inbounds nuw %"struct.std::_Vector_base.189", ptr %6, i32 0, i32 0
  %8 = getelementptr inbounds nuw %"struct.std::_Vector_base<grpc_core::EndpointAddresses, std::allocator<grpc_core::EndpointAddresses>>::_Vector_impl_data", ptr %7, i32 0, i32 1
  %9 = load ptr, ptr %8, align 8, !tbaa !505
  %10 = getelementptr inbounds nuw %"struct.std::_Vector_base.189", ptr %6, i32 0, i32 0
  %11 = getelementptr inbounds nuw %"struct.std::_Vector_base<grpc_core::EndpointAddresses, std::allocator<grpc_core::EndpointAddresses>>::_Vector_impl_data", ptr %10, i32 0, i32 2
  %12 = load ptr, ptr %11, align 8, !tbaa !507
  %13 = icmp ne ptr %9, %12
  br i1 %13, label %14, label %24

14:                                               ; preds = %2
  %15 = getelementptr inbounds nuw %"struct.std::_Vector_base.189", ptr %6, i32 0, i32 0
  %16 = getelementptr inbounds nuw %"struct.std::_Vector_base.189", ptr %6, i32 0, i32 0
  %17 = getelementptr inbounds nuw %"struct.std::_Vector_base<grpc_core::EndpointAddresses, std::allocator<grpc_core::EndpointAddresses>>::_Vector_impl_data", ptr %16, i32 0, i32 1
  %18 = load ptr, ptr %17, align 8, !tbaa !505
  %19 = load ptr, ptr %4, align 8, !tbaa !308
  call void @_ZNSt16allocator_traitsISaIN9grpc_core17EndpointAddressesEEE9constructIS1_JRKS1_EEEvRS2_PT_DpOT0_(ptr noundef nonnull align 1 dereferenceable(1) %15, ptr noundef %18, ptr noundef nonnull align 8 dereferenceable(32) %19)
  %20 = getelementptr inbounds nuw %"struct.std::_Vector_base.189", ptr %6, i32 0, i32 0
  %21 = getelementptr inbounds nuw %"struct.std::_Vector_base<grpc_core::EndpointAddresses, std::allocator<grpc_core::EndpointAddresses>>::_Vector_impl_data", ptr %20, i32 0, i32 1
  %22 = load ptr, ptr %21, align 8, !tbaa !505
  %23 = getelementptr inbounds nuw %"class.grpc_core::EndpointAddresses", ptr %22, i32 1
  store ptr %23, ptr %21, align 8, !tbaa !505
  br label %30

24:                                               ; preds = %2
  %25 = call ptr @_ZNSt6vectorIN9grpc_core17EndpointAddressesESaIS1_EE3endEv(ptr noundef nonnull align 8 dereferenceable(24) %6) #3
  %26 = getelementptr inbounds nuw %"class.__gnu_cxx::__normal_iterator.202", ptr %5, i32 0, i32 0
  store ptr %25, ptr %26, align 8
  %27 = load ptr, ptr %4, align 8, !tbaa !308
  %28 = getelementptr inbounds nuw %"class.__gnu_cxx::__normal_iterator.202", ptr %5, i32 0, i32 0
  %29 = load ptr, ptr %28, align 8
  call void @_ZNSt6vectorIN9grpc_core17EndpointAddressesESaIS1_EE17_M_realloc_insertIJRKS1_EEEvN9__gnu_cxx17__normal_iteratorIPS1_S3_EEDpOT_(ptr noundef nonnull align 8 dereferenceable(24) %6, ptr %29, ptr noundef nonnull align 8 dereferenceable(32) %27)
  br label %30

30:                                               ; preds = %24, %14
  ret void
}

; Function Attrs: inlinehint mustprogress uwtable
define internal void @"_ZZN9grpc_core12_GLOBAL__N_112OldPickFirst12UpdateLockedENS_19LoadBalancingPolicy10UpdateArgsEENK3$_0clERKNS_17EndpointAddressesE"(ptr noundef nonnull align 8 dereferenceable(8) %0, ptr noundef nonnull align 8 dereferenceable(32) %1) #7 align 2 {
  %3 = alloca ptr, align 8
  %4 = alloca ptr, align 8
  store ptr %0, ptr %3, align 8, !tbaa !53
  store ptr %1, ptr %4, align 8, !tbaa !308
  %5 = load ptr, ptr %3, align 8
  %6 = getelementptr inbounds nuw %class.anon, ptr %5, i32 0, i32 0
  %7 = load ptr, ptr %6, align 8, !tbaa !560
  %8 = load ptr, ptr %4, align 8, !tbaa !308
  call void @_ZNSt6vectorIN9grpc_core17EndpointAddressesESaIS1_EE9push_backERKS1_(ptr noundef nonnull align 8 dereferenceable(24) %7, ptr noundef nonnull align 8 dereferenceable(32) %8)
  ret void
}

; Function Attrs: mustprogress uwtable
define internal void @"_ZSt13__invoke_implIvRKZN9grpc_core12_GLOBAL__N_112OldPickFirst12UpdateLockedENS0_19LoadBalancingPolicy10UpdateArgsEE3$_0JRKNS0_17EndpointAddressesEEET_St14__invoke_otherOT0_DpOT1_"(ptr noundef nonnull align 8 dereferenceable(8) %0, ptr noundef nonnull align 8 dereferenceable(32) %1) #5 {
  %3 = alloca ptr, align 8
  %4 = alloca ptr, align 8
  store ptr %0, ptr %3, align 8, !tbaa !53
  store ptr %1, ptr %4, align 8, !tbaa !308
  %5 = load ptr, ptr %3, align 8, !tbaa !53
  %6 = load ptr, ptr %4, align 8, !tbaa !308
  call void @"_ZZN9grpc_core12_GLOBAL__N_112OldPickFirst12UpdateLockedENS_19LoadBalancingPolicy10UpdateArgsEENK3$_0clERKNS_17EndpointAddressesE"(ptr noundef nonnull align 8 dereferenceable(8) %5, ptr noundef nonnull align 8 dereferenceable(32) %6)
  ret void
}

; Function Attrs: mustprogress uwtable
define internal void @"_ZSt8__invokeIRKZN9grpc_core12_GLOBAL__N_112OldPickFirst12UpdateLockedENS0_19LoadBalancingPolicy10UpdateArgsEE3$_0JRKNS0_17EndpointAddressesEEENSt15__invoke_resultIT_JDpT0_EE4typeEOSC_DpOSD_"(ptr noundef nonnull align 8 dereferenceable(8) %0, ptr noundef nonnull align 8 dereferenceable(32) %1) #5 {
  %3 = alloca ptr, align 8
  %4 = alloca ptr, align 8
  store ptr %0, ptr %3, align 8, !tbaa !53
  store ptr %1, ptr %4, align 8, !tbaa !308
  %5 = load ptr, ptr %3, align 8, !tbaa !53
  %6 = load ptr, ptr %4, align 8, !tbaa !308
  call void @"_ZSt13__invoke_implIvRKZN9grpc_core12_GLOBAL__N_112OldPickFirst12UpdateLockedENS0_19LoadBalancingPolicy10UpdateArgsEE3$_0JRKNS0_17EndpointAddressesEEET_St14__invoke_otherOT0_DpOT1_"(ptr noundef nonnull align 8 dereferenceable(8) %5, ptr noundef nonnull align 8 dereferenceable(32) %6)
  ret void
}

; Function Attrs: inlinehint mustprogress uwtable
define internal void @"_ZSt6invokeIRKZN9grpc_core12_GLOBAL__N_112OldPickFirst12UpdateLockedENS0_19LoadBalancingPolicy10UpdateArgsEE3$_0JRKNS0_17EndpointAddressesEEENSt13invoke_resultIT_JDpT0_EE4typeEOSC_DpOSD_"(ptr noundef nonnull align 8 dereferenceable(8) %0, ptr noundef nonnull align 8 dereferenceable(32) %1) #7 {
  %3 = alloca ptr, align 8
  %4 = alloca ptr, align 8
  store ptr %0, ptr %3, align 8, !tbaa !53
  store ptr %1, ptr %4, align 8, !tbaa !308
  %5 = load ptr, ptr %3, align 8, !tbaa !53
  %6 = load ptr, ptr %4, align 8, !tbaa !308
  call void @"_ZSt8__invokeIRKZN9grpc_core12_GLOBAL__N_112OldPickFirst12UpdateLockedENS0_19LoadBalancingPolicy10UpdateArgsEE3$_0JRKNS0_17EndpointAddressesEEENSt15__invoke_resultIT_JDpT0_EE4typeEOSC_DpOSD_"(ptr noundef nonnull align 8 dereferenceable(8) %5, ptr noundef nonnull align 8 dereferenceable(32) %6)
  ret void
}

; Function Attrs: mustprogress uwtable
define internal void @"_ZN4absl12lts_2024072219functional_internal12InvokeObjectIZN9grpc_core12_GLOBAL__N_112OldPickFirst12UpdateLockedENS3_19LoadBalancingPolicy10UpdateArgsEE3$_0vJRKNS3_17EndpointAddressesEEEET0_NS1_7VoidPtrEDpNS1_8ForwardTIT1_E4typeE"(ptr %0, ptr noundef nonnull align 8 dereferenceable(32) %1) #5 {
  %3 = alloca %"union.absl::lts_20240722::functional_internal::VoidPtr", align 8
  %4 = alloca ptr, align 8
  %5 = alloca ptr, align 8
  %6 = getelementptr inbounds nuw %"union.absl::lts_20240722::functional_internal::VoidPtr", ptr %3, i32 0, i32 0
  store ptr %0, ptr %6, align 8
  store ptr %1, ptr %4, align 8, !tbaa !308
  call void @llvm.lifetime.start.p0(i64 8, ptr %5) #3
  %7 = load ptr, ptr %3, align 8, !tbaa !97
  store ptr %7, ptr %5, align 8, !tbaa !53
  %8 = load ptr, ptr %5, align 8, !tbaa !53
  %9 = load ptr, ptr %4, align 8, !tbaa !308
  call void @"_ZSt6invokeIRKZN9grpc_core12_GLOBAL__N_112OldPickFirst12UpdateLockedENS0_19LoadBalancingPolicy10UpdateArgsEE3$_0JRKNS0_17EndpointAddressesEEENSt13invoke_resultIT_JDpT0_EE4typeEOSC_DpOSD_"(ptr noundef nonnull align 8 dereferenceable(8) %8, ptr noundef nonnull align 8 dereferenceable(32) %9)
  call void @llvm.lifetime.end.p0(i64 8, ptr %5) #3
  ret void
}